target datalayout = "e-m:e-p270:32:32-p271:32:32-p272:64:64-i64:64-i128:128-f80:128-n8:16:32:64-S128"
target triple = "x86_64-pc-linux-gnu"

%struct.H5HF_huge_bt2_ctx_t = type { i8, i8 }
%struct.H5HF_huge_bt2_dir_rec_t = type { i64, i64 }

@H5HF_init_g = external global i8, align 1
@H5_libterm_g = external global i8, align 1

; Function Attrs: nounwind uwtable
define internal i32 @H5HF__huge_bt2_dir_decode(ptr noundef %0, ptr noundef %1, ptr noundef %2) #0 {
  %4 = alloca ptr, align 8
  %5 = alloca ptr, align 8
  %6 = alloca ptr, align 8
  %7 = alloca ptr, align 8
  %8 = alloca ptr, align 8
  %9 = alloca i64, align 8
  store ptr %0, ptr %4, align 8, !tbaa !27
  store ptr %1, ptr %5, align 8, !tbaa !3
  store ptr %2, ptr %6, align 8, !tbaa !3
  call void @llvm.lifetime.start.p0(i64 8, ptr %7) #6
  %10 = load ptr, ptr %6, align 8, !tbaa !3
  store ptr %10, ptr %7, align 8, !tbaa !13
  call void @llvm.lifetime.start.p0(i64 8, ptr %8) #6
  %11 = load ptr, ptr %5, align 8, !tbaa !3
  store ptr %11, ptr %8, align 8, !tbaa !62
  %12 = load i8, ptr @H5HF_init_g, align 1, !tbaa !9, !range !11, !noundef !12
  %13 = trunc i8 %12 to i1
  br i1 %13, label %18, label %14

14:                                               ; preds = %3
  %15 = load i8, ptr @H5_libterm_g, align 1, !tbaa !9, !range !11, !noundef !12
  %16 = trunc i8 %15 to i1
  %17 = xor i1 %16, true
  br label %18

18:                                               ; preds = %14, %3
  %19 = phi i1 [ true, %3 ], [ %17, %14 ]
  %20 = xor i1 %19, true
  %21 = xor i1 %20, true
  %22 = zext i1 %21 to i32
  %23 = sext i32 %22 to i64
  %24 = call i64 @llvm.expect.i64(i64 %23, i64 1)
  %25 = icmp ne i64 %24, 0
  br i1 %25, label %26, label %147

26:                                               ; preds = %18
  %27 = load ptr, ptr %7, align 8, !tbaa !13
  %28 = getelementptr inbounds nuw %struct.H5HF_huge_bt2_ctx_t, ptr %27, i32 0, i32 1
  %29 = load i8, ptr %28, align 1, !tbaa !17
  %30 = zext i8 %29 to i64
  %31 = load ptr, ptr %8, align 8, !tbaa !62
  %32 = getelementptr inbounds nuw %struct.H5HF_huge_bt2_dir_rec_t, ptr %31, i32 0, i32 0
  call void @H5F_addr_decode_len(i64 noundef %30, ptr noundef %4, ptr noundef %32)
  br label %33

33:                                               ; preds = %26
  %34 = load ptr, ptr %7, align 8, !tbaa !13
  %35 = getelementptr inbounds nuw %struct.H5HF_huge_bt2_ctx_t, ptr %34, i32 0, i32 0
  %36 = load i8, ptr %35, align 1, !tbaa !19
  %37 = zext i8 %36 to i32
  switch i32 %37, label %143 [
    i32 4, label %38
    i32 8, label %87
    i32 2, label %116
  ]

38:                                               ; preds = %33
  br label %39

39:                                               ; preds = %38
  %40 = load ptr, ptr %4, align 8, !tbaa !27
  %41 = load i8, ptr %40, align 1, !tbaa !33
  %42 = zext i8 %41 to i32
  %43 = and i32 %42, 255
  %44 = zext i32 %43 to i64
  %45 = load ptr, ptr %8, align 8, !tbaa !62
  %46 = getelementptr inbounds nuw %struct.H5HF_huge_bt2_dir_rec_t, ptr %45, i32 0, i32 1
  store i64 %44, ptr %46, align 8, !tbaa !66
  %47 = load ptr, ptr %4, align 8, !tbaa !27
  %48 = getelementptr inbounds nuw i8, ptr %47, i32 1
  store ptr %48, ptr %4, align 8, !tbaa !27
  %49 = load ptr, ptr %4, align 8, !tbaa !27
  %50 = load i8, ptr %49, align 1, !tbaa !33
  %51 = zext i8 %50 to i32
  %52 = and i32 %51, 255
  %53 = shl i32 %52, 8
  %54 = zext i32 %53 to i64
  %55 = load ptr, ptr %8, align 8, !tbaa !62
  %56 = getelementptr inbounds nuw %struct.H5HF_huge_bt2_dir_rec_t, ptr %55, i32 0, i32 1
  %57 = load i64, ptr %56, align 8, !tbaa !66
  %58 = or i64 %57, %54
  store i64 %58, ptr %56, align 8, !tbaa !66
  %59 = load ptr, ptr %4, align 8, !tbaa !27
  %60 = getelementptr inbounds nuw i8, ptr %59, i32 1
  store ptr %60, ptr %4, align 8, !tbaa !27
  %61 = load ptr, ptr %4, align 8, !tbaa !27
  %62 = load i8, ptr %61, align 1, !tbaa !33
  %63 = zext i8 %62 to i32
  %64 = and i32 %63, 255
  %65 = shl i32 %64, 16
  %66 = zext i32 %65 to i64
  %67 = load ptr, ptr %8, align 8, !tbaa !62
  %68 = getelementptr inbounds nuw %struct.H5HF_huge_bt2_dir_rec_t, ptr %67, i32 0, i32 1
  %69 = load i64, ptr %68, align 8, !tbaa !66
  %70 = or i64 %69, %66
  store i64 %70, ptr %68, align 8, !tbaa !66
  %71 = load ptr, ptr %4, align 8, !tbaa !27
  %72 = getelementptr inbounds nuw i8, ptr %71, i32 1
  store ptr %72, ptr %4, align 8, !tbaa !27
  %73 = load ptr, ptr %4, align 8, !tbaa !27
  %74 = load i8, ptr %73, align 1, !tbaa !33
  %75 = zext i8 %74 to i32
  %76 = and i32 %75, 255
  %77 = shl i32 %76, 24
  %78 = zext i32 %77 to i64
  %79 = load ptr, ptr %8, align 8, !tbaa !62
  %80 = getelementptr inbounds nuw %struct.H5HF_huge_bt2_dir_rec_t, ptr %79, i32 0, i32 1
  %81 = load i64, ptr %80, align 8, !tbaa !66
  %82 = or i64 %81, %78
  store i64 %82, ptr %80, align 8, !tbaa !66
  %83 = load ptr, ptr %4, align 8, !tbaa !27
  %84 = getelementptr inbounds nuw i8, ptr %83, i32 1
  store ptr %84, ptr %4, align 8, !tbaa !27
  br label %85

85:                                               ; preds = %39
  br label %86

86:                                               ; preds = %85
  br label %144

87:                                               ; preds = %33
  br label %88

88:                                               ; preds = %87
  call void @llvm.lifetime.start.p0(i64 8, ptr %9) #6
  %89 = load ptr, ptr %8, align 8, !tbaa !62
  %90 = getelementptr inbounds nuw %struct.H5HF_huge_bt2_dir_rec_t, ptr %89, i32 0, i32 1
  store i64 0, ptr %90, align 8, !tbaa !66
  %91 = load ptr, ptr %4, align 8, !tbaa !27
  %92 = getelementptr inbounds i8, ptr %91, i64 8
  store ptr %92, ptr %4, align 8, !tbaa !27
  store i64 0, ptr %9, align 8, !tbaa !15
  br label %93

93:                                               ; preds = %108, %88
  %94 = load i64, ptr %9, align 8, !tbaa !15
  %95 = icmp ult i64 %94, 8
  br i1 %95, label %96, label %111

96:                                               ; preds = %93
  %97 = load ptr, ptr %8, align 8, !tbaa !62
  %98 = getelementptr inbounds nuw %struct.H5HF_huge_bt2_dir_rec_t, ptr %97, i32 0, i32 1
  %99 = load i64, ptr %98, align 8, !tbaa !66
  %100 = shl i64 %99, 8
  %101 = load ptr, ptr %4, align 8, !tbaa !27
  %102 = getelementptr inbounds i8, ptr %101, i32 -1
  store ptr %102, ptr %4, align 8, !tbaa !27
  %103 = load i8, ptr %102, align 1, !tbaa !33
  %104 = zext i8 %103 to i64
  %105 = or i64 %100, %104
  %106 = load ptr, ptr %8, align 8, !tbaa !62
  %107 = getelementptr inbounds nuw %struct.H5HF_huge_bt2_dir_rec_t, ptr %106, i32 0, i32 1
  store i64 %105, ptr %107, align 8, !tbaa !66
  br label %108

108:                                              ; preds = %96
  %109 = load i64, ptr %9, align 8, !tbaa !15
  %110 = add i64 %109, 1
  store i64 %110, ptr %9, align 8, !tbaa !15
  br label %93, !llvm.loop !69

111:                                              ; preds = %93
  %112 = load ptr, ptr %4, align 8, !tbaa !27
  %113 = getelementptr inbounds i8, ptr %112, i64 8
  store ptr %113, ptr %4, align 8, !tbaa !27
  call void @llvm.lifetime.end.p0(i64 8, ptr %9) #6
  br label %114

114:                                              ; preds = %111
  br label %115

115:                                              ; preds = %114
  br label %144

116:                                              ; preds = %33
  br label %117

117:                                              ; preds = %116
  %118 = load ptr, ptr %4, align 8, !tbaa !27
  %119 = load i8, ptr %118, align 1, !tbaa !33
  %120 = zext i8 %119 to i32
  %121 = and i32 %120, 255
  %122 = trunc i32 %121 to i16
  %123 = zext i16 %122 to i64
  %124 = load ptr, ptr %8, align 8, !tbaa !62
  %125 = getelementptr inbounds nuw %struct.H5HF_huge_bt2_dir_rec_t, ptr %124, i32 0, i32 1
  store i64 %123, ptr %125, align 8, !tbaa !66
  %126 = load ptr, ptr %4, align 8, !tbaa !27
  %127 = getelementptr inbounds nuw i8, ptr %126, i32 1
  store ptr %127, ptr %4, align 8, !tbaa !27
  %128 = load ptr, ptr %4, align 8, !tbaa !27
  %129 = load i8, ptr %128, align 1, !tbaa !33
  %130 = zext i8 %129 to i32
  %131 = and i32 %130, 255
  %132 = shl i32 %131, 8
  %133 = trunc i32 %132 to i16
  %134 = zext i16 %133 to i64
  %135 = load ptr, ptr %8, align 8, !tbaa !62
  %136 = getelementptr inbounds nuw %struct.H5HF_huge_bt2_dir_rec_t, ptr %135, i32 0, i32 1
  %137 = load i64, ptr %136, align 8, !tbaa !66
  %138 = or i64 %137, %134
  store i64 %138, ptr %136, align 8, !tbaa !66
  %139 = load ptr, ptr %4, align 8, !tbaa !27
  %140 = getelementptr inbounds nuw i8, ptr %139, i32 1
  store ptr %140, ptr %4, align 8, !tbaa !27
  br label %141

141:                                              ; preds = %117
  br label %142

142:                                              ; preds = %141
  br label %144

143:                                              ; preds = %33
  br label %144

144:                                              ; preds = %143, %142, %115, %86
  br label %145

145:                                              ; preds = %144
  br label %146

146:                                              ; preds = %145
  br label %147

147:                                              ; preds = %146, %18
  call void @llvm.lifetime.end.p0(i64 8, ptr %8) #6
  call void @llvm.lifetime.end.p0(i64 8, ptr %7) #6
  ret i32 0
}