; Function Attrs: nounwind uwtable
define internal noundef i32 @H5HF__huge_bt2_dir_decode(ptr noundef %0, ptr noundef %1, ptr noundef readonly captures(none) %2) #0 {
  %4 = alloca ptr, align 8
  store ptr %0, ptr %4, align 8, !tbaa !20
  %5 = load i8, ptr @H5HF_init_g, align 1, !tbaa !3, !range !7, !noundef !8
  %6 = trunc nuw i8 %5 to i1
  %7 = load i8, ptr @H5_libterm_g, align 1, !range !7
  %8 = trunc nuw i8 %7 to i1
  %9 = xor i1 %8, true
  %10 = select i1 %6, i1 true, i1 %9
  br i1 %10, label %11, label %.loopexit, !prof !9

11:                                               ; preds = %3
  %12 = getelementptr inbounds nuw i8, ptr %2, i64 1
  %13 = load i8, ptr %12, align 1, !tbaa !12
  %14 = zext i8 %13 to i64
  call void @H5F_addr_decode_len(i64 noundef %14, ptr noundef nonnull %4, ptr noundef %1) #6
  %15 = load i8, ptr %2, align 1, !tbaa !14
  switch i8 %15, label %.loopexit [
    i8 4, label %16
    i8 8, label %36
    i8 2, label %49
  ]

16:                                               ; preds = %11
  %17 = load ptr, ptr %4, align 8, !tbaa !20
  %18 = load i8, ptr %17, align 1, !tbaa !25
  %19 = zext i8 %18 to i64
  %20 = getelementptr inbounds nuw i8, ptr %1, i64 8
  store i64 %19, ptr %20, align 8, !tbaa !47
  %21 = getelementptr inbounds nuw i8, ptr %17, i64 1
  store ptr %21, ptr %4, align 8, !tbaa !20
  %22 = load i8, ptr %21, align 1, !tbaa !25
  %23 = zext i8 %22 to i64
  %24 = shl nuw nsw i64 %23, 8
  %25 = or disjoint i64 %24, %19
  store i64 %25, ptr %20, align 8, !tbaa !47
  %26 = getelementptr inbounds nuw i8, ptr %17, i64 2
  store ptr %26, ptr %4, align 8, !tbaa !20
  %27 = load i8, ptr %26, align 1, !tbaa !25
  %28 = zext i8 %27 to i64
  %29 = shl nuw nsw i64 %28, 16
  %30 = or disjoint i64 %29, %25
  store i64 %30, ptr %20, align 8, !tbaa !47
  %31 = getelementptr inbounds nuw i8, ptr %17, i64 3
  store ptr %31, ptr %4, align 8, !tbaa !20
  %32 = load i8, ptr %31, align 1, !tbaa !25
  %33 = zext i8 %32 to i64
  %34 = shl nuw nsw i64 %33, 24
  %35 = or disjoint i64 %34, %30
  store i64 %35, ptr %20, align 8, !tbaa !47
  br label %.loopexit

36:                                               ; preds = %11
  %37 = getelementptr inbounds nuw i8, ptr %1, i64 8
  store i64 0, ptr %37, align 8, !tbaa !47
  %38 = load ptr, ptr %4, align 8, !tbaa !20
  %39 = getelementptr inbounds nuw i8, ptr %38, i64 8
  br label %40

40:                                               ; preds = %36, %40
  %.016 = phi i64 [ 0, %36 ], [ %48, %40 ]
  %41 = phi i64 [ 0, %36 ], [ %47, %40 ]
  %42 = phi ptr [ %39, %36 ], [ %44, %40 ]
  %43 = shl i64 %41, 8
  %44 = getelementptr inbounds i8, ptr %42, i64 -1
  store ptr %44, ptr %4, align 8, !tbaa !20
  %45 = load i8, ptr %44, align 1, !tbaa !25
  %46 = zext i8 %45 to i64
  %47 = or disjoint i64 %43, %46
  store i64 %47, ptr %37, align 8, !tbaa !47
  %48 = add nuw nsw i64 %.016, 1
  %exitcond.not = icmp eq i64 %48, 8
  br i1 %exitcond.not, label %.loopexit, label %40, !llvm.loop !49

49:                                               ; preds = %11
  %50 = load ptr, ptr %4, align 8, !tbaa !20
  %51 = load i8, ptr %50, align 1, !tbaa !25
  %52 = zext i8 %51 to i64
  %53 = getelementptr inbounds nuw i8, ptr %1, i64 8
  store i64 %52, ptr %53, align 8, !tbaa !47
  %54 = getelementptr inbounds nuw i8, ptr %50, i64 1
  store ptr %54, ptr %4, align 8, !tbaa !20
  %55 = load i8, ptr %54, align 1, !tbaa !25
  %56 = zext i8 %55 to i64
  %57 = shl nuw nsw i64 %56, 8
  %58 = or disjoint i64 %57, %52
  store i64 %58, ptr %53, align 8, !tbaa !47
  br label %.loopexit

.loopexit:                                        ; preds = %40, %16, %49, %11, %3
  ret i32 0
}